target datalayout = "e-m:e-p270:32:32-p271:32:32-p272:64:64-i64:64-i128:128-f80:128-n8:16:32:64-S128"
target triple = "x86_64-pc-linux-gnu"

%struct._object = type { %union.anon, ptr }
%union.anon = type { i64 }
%struct._longobject = type { %struct._object, %struct._PyLongValue }
%struct._PyLongValue = type { i64, [1 x i32] }
%struct.pysqlite_Connection = type { %struct._object, ptr, ptr, i32, ptr, i32, i32, i32, i64, ptr, ptr, ptr, i32, ptr, ptr, ptr, ptr, ptr, ptr, ptr, ptr, ptr, ptr, ptr, ptr, ptr, ptr, ptr }
%struct.pysqlite_Blob = type { %struct._object, ptr, ptr, i32, ptr }
%struct.pysqlite_state = type { ptr, ptr, ptr, ptr, ptr, ptr, ptr, ptr, ptr, ptr, ptr, ptr, ptr, i32, i32, ptr, ptr, ptr, ptr, ptr, ptr, ptr, ptr, ptr, ptr, ptr, ptr, ptr, ptr }

@.str.5 = private unnamed_addr constant [9 x i8] c"__exit__\00", align 1
@.str.11 = private unnamed_addr constant [33 x i8] c"Cannot operate on a closed blob.\00", align 1
@_Py_FalseStruct = external global %struct._longobject, align 8

; Function Attrs: nounwind uwtable
define internal void @close_blob(ptr noundef %0) #0 {
  %2 = alloca ptr, align 8
  %3 = alloca ptr, align 8
  %4 = alloca ptr, align 8
  store ptr %0, ptr %2, align 8, !tbaa !3
  %5 = load ptr, ptr %2, align 8, !tbaa !3
  %6 = getelementptr inbounds nuw %struct.pysqlite_Blob, ptr %5, i32 0, i32 2
  %7 = load ptr, ptr %6, align 8, !tbaa !25
  %8 = icmp ne ptr %7, null
  br i1 %8, label %9, label %19

9:                                                ; preds = %1
  call void @llvm.lifetime.start.p0(i64 8, ptr %3) #6
  %10 = load ptr, ptr %2, align 8, !tbaa !3
  %11 = getelementptr inbounds nuw %struct.pysqlite_Blob, ptr %10, i32 0, i32 2
  %12 = load ptr, ptr %11, align 8, !tbaa !25
  store ptr %12, ptr %3, align 8, !tbaa !28
  %13 = load ptr, ptr %2, align 8, !tbaa !3
  %14 = getelementptr inbounds nuw %struct.pysqlite_Blob, ptr %13, i32 0, i32 2
  store ptr null, ptr %14, align 8, !tbaa !25
  call void @llvm.lifetime.start.p0(i64 8, ptr %4) #6
  %15 = call ptr @PyEval_SaveThread()
  store ptr %15, ptr %4, align 8, !tbaa !29
  %16 = load ptr, ptr %3, align 8, !tbaa !28
  %17 = call i32 @sqlite3_blob_close(ptr noundef %16)
  %18 = load ptr, ptr %4, align 8, !tbaa !29
  call void @PyEval_RestoreThread(ptr noundef %18)
  call void @llvm.lifetime.end.p0(i64 8, ptr %4) #6
  call void @llvm.lifetime.end.p0(i64 8, ptr %3) #6
  br label %19

19:                                               ; preds = %9, %1
  ret void
}

; Function Attrs: nounwind uwtable
define internal i32 @check_blob(ptr noundef %0) #0 {
  %2 = alloca i32, align 4
  %3 = alloca ptr, align 8
  %4 = alloca ptr, align 8
  store ptr %0, ptr %3, align 8, !tbaa !3
  %5 = load ptr, ptr %3, align 8, !tbaa !3
  %6 = getelementptr inbounds nuw %struct.pysqlite_Blob, ptr %5, i32 0, i32 1
  %7 = load ptr, ptr %6, align 8, !tbaa !45
  %8 = call i32 @pysqlite_check_connection(ptr noundef %7)
  %9 = icmp ne i32 %8, 0
  br i1 %9, label %10, label %16

10:                                               ; preds = %1
  %11 = load ptr, ptr %3, align 8, !tbaa !3
  %12 = getelementptr inbounds nuw %struct.pysqlite_Blob, ptr %11, i32 0, i32 1
  %13 = load ptr, ptr %12, align 8, !tbaa !45
  %14 = call i32 @pysqlite_check_thread(ptr noundef %13)
  %15 = icmp ne i32 %14, 0
  br i1 %15, label %17, label %16

16:                                               ; preds = %10, %1
  store i32 0, ptr %2, align 4
  br label %32

17:                                               ; preds = %10
  %18 = load ptr, ptr %3, align 8, !tbaa !3
  %19 = getelementptr inbounds nuw %struct.pysqlite_Blob, ptr %18, i32 0, i32 2
  %20 = load ptr, ptr %19, align 8, !tbaa !25
  %21 = icmp eq ptr %20, null
  br i1 %21, label %22, label %31

22:                                               ; preds = %17
  call void @llvm.lifetime.start.p0(i64 8, ptr %4) #6
  %23 = load ptr, ptr %3, align 8, !tbaa !3
  %24 = getelementptr inbounds nuw %struct.pysqlite_Blob, ptr %23, i32 0, i32 1
  %25 = load ptr, ptr %24, align 8, !tbaa !45
  %26 = getelementptr inbounds nuw %struct.pysqlite_Connection, ptr %25, i32 0, i32 2
  %27 = load ptr, ptr %26, align 8, !tbaa !51
  store ptr %27, ptr %4, align 8, !tbaa !3
  %28 = load ptr, ptr %4, align 8, !tbaa !3
  %29 = getelementptr inbounds nuw %struct.pysqlite_state, ptr %28, i32 0, i32 8
  %30 = load ptr, ptr %29, align 8, !tbaa !52
  call void @PyErr_SetString(ptr noundef %30, ptr noundef @.str.11)
  store i32 0, ptr %2, align 4
  call void @llvm.lifetime.end.p0(i64 8, ptr %4) #6
  br label %32

31:                                               ; preds = %17
  store i32 1, ptr %2, align 4
  br label %32

32:                                               ; preds = %31, %22, %16
  %33 = load i32, ptr %2, align 4
  ret i32 %33
}

; Function Attrs: nounwind uwtable
define internal ptr @blob_exit_impl(ptr noundef %0, ptr noundef %1, ptr noundef %2, ptr noundef %3) #0 {
  %5 = alloca ptr, align 8
  %6 = alloca ptr, align 8
  %7 = alloca ptr, align 8
  %8 = alloca ptr, align 8
  %9 = alloca ptr, align 8
  store ptr %0, ptr %6, align 8, !tbaa !3
  store ptr %1, ptr %7, align 8, !tbaa !22
  store ptr %2, ptr %8, align 8, !tbaa !22
  store ptr %3, ptr %9, align 8, !tbaa !22
  %10 = load ptr, ptr %6, align 8, !tbaa !3
  %11 = call i32 @check_blob(ptr noundef %10)
  %12 = icmp ne i32 %11, 0
  br i1 %12, label %14, label %13

13:                                               ; preds = %4
  store ptr null, ptr %5, align 8
  br label %16

14:                                               ; preds = %4
  %15 = load ptr, ptr %6, align 8, !tbaa !3
  call void @close_blob(ptr noundef %15)
  store ptr @_Py_FalseStruct, ptr %5, align 8
  br label %16

16:                                               ; preds = %14, %13
  %17 = load ptr, ptr %5, align 8
  ret ptr %17
}

; Function Attrs: nounwind uwtable
define internal ptr @blob_exit(ptr noundef %0, ptr noundef %1, i64 noundef %2) #0 {
  %4 = alloca ptr, align 8
  %5 = alloca ptr, align 8
  %6 = alloca i64, align 8
  %7 = alloca ptr, align 8
  %8 = alloca ptr, align 8
  %9 = alloca ptr, align 8
  %10 = alloca ptr, align 8
  store ptr %0, ptr %4, align 8, !tbaa !22
  store ptr %1, ptr %5, align 8, !tbaa !47
  store i64 %2, ptr %6, align 8, !tbaa !7
  call void @llvm.lifetime.start.p0(i64 8, ptr %7) #6
  store ptr null, ptr %7, align 8, !tbaa !22
  call void @llvm.lifetime.start.p0(i64 8, ptr %8) #6
  call void @llvm.lifetime.start.p0(i64 8, ptr %9) #6
  call void @llvm.lifetime.start.p0(i64 8, ptr %10) #6
  %11 = load i64, ptr %6, align 8, !tbaa !7
  %12 = icmp sle i64 3, %11
  br i1 %12, label %13, label %16

13:                                               ; preds = %3
  %14 = load i64, ptr %6, align 8, !tbaa !7
  %15 = icmp sle i64 %14, 3
  br i1 %15, label %21, label %16

16:                                               ; preds = %13, %3
  %17 = load i64, ptr %6, align 8, !tbaa !7
  %18 = call i32 @_PyArg_CheckPositional(ptr noundef @.str.5, i64 noundef %17, i64 noundef 3, i64 noundef 3)
  %19 = icmp ne i32 %18, 0
  br i1 %19, label %21, label %20

20:                                               ; preds = %16
  br label %36

21:                                               ; preds = %16, %13
  %22 = load ptr, ptr %5, align 8, !tbaa !47
  %23 = getelementptr ptr, ptr %22, i64 0
  %24 = load ptr, ptr %23, align 8, !tbaa !22
  store ptr %24, ptr %8, align 8, !tbaa !22
  %25 = load ptr, ptr %5, align 8, !tbaa !47
  %26 = getelementptr ptr, ptr %25, i64 1
  %27 = load ptr, ptr %26, align 8, !tbaa !22
  store ptr %27, ptr %9, align 8, !tbaa !22
  %28 = load ptr, ptr %5, align 8, !tbaa !47
  %29 = getelementptr ptr, ptr %28, i64 2
  %30 = load ptr, ptr %29, align 8, !tbaa !22
  store ptr %30, ptr %10, align 8, !tbaa !22
  %31 = load ptr, ptr %4, align 8, !tbaa !22
  %32 = load ptr, ptr %8, align 8, !tbaa !22
  %33 = load ptr, ptr %9, align 8, !tbaa !22
  %34 = load ptr, ptr %10, align 8, !tbaa !22
  %35 = call ptr @blob_exit_impl(ptr noundef %31, ptr noundef %32, ptr noundef %33, ptr noundef %34)
  store ptr %35, ptr %7, align 8, !tbaa !22
  br label %36

36:                                               ; preds = %21, %20
  %37 = load ptr, ptr %7, align 8, !tbaa !22
  call void @llvm.lifetime.end.p0(i64 8, ptr %10) #6
  call void @llvm.lifetime.end.p0(i64 8, ptr %9) #6
  call void @llvm.lifetime.end.p0(i64 8, ptr %8) #6
  call void @llvm.lifetime.end.p0(i64 8, ptr %7) #6
  ret ptr %37
}