; Function Attrs: nounwind uwtable
define internal noundef ptr @blob_exit(ptr noundef captures(none) %0, ptr readnone captures(none) %1, i64 noundef %2) #0 {
  %or.cond = icmp eq i64 %2, 3
  br i1 %or.cond, label %6, label %4

4:                                                ; preds = %3
  %5 = tail call i32 @_PyArg_CheckPositional(ptr noundef nonnull @.str.5, i64 noundef %2, i64 noundef 3, i64 noundef 3) #5
  %.not = icmp eq i32 %5, 0
  br i1 %.not, label %blob_exit_impl.exit, label %6

6:                                                ; preds = %3, %4
  %7 = getelementptr inbounds nuw i8, ptr %0, i64 16
  %8 = load ptr, ptr %7, align 8, !tbaa !39
  %9 = tail call i32 @pysqlite_check_connection(ptr noundef %8) #5
  %.not.i.i = icmp eq i32 %9, 0
  br i1 %.not.i.i, label %blob_exit_impl.exit, label %10

10:                                               ; preds = %6
  %11 = load ptr, ptr %7, align 8, !tbaa !39
  %12 = tail call i32 @pysqlite_check_thread(ptr noundef %11) #5
  %.not5.i.i = icmp eq i32 %12, 0
  br i1 %.not5.i.i, label %blob_exit_impl.exit, label %13

13:                                               ; preds = %10
  %14 = getelementptr inbounds nuw i8, ptr %0, i64 24
  %15 = load ptr, ptr %14, align 8, !tbaa !22
  %16 = icmp eq ptr %15, null
  br i1 %16, label %17, label %check_blob.exit.i

17:                                               ; preds = %13
  %18 = load ptr, ptr %7, align 8, !tbaa !39
  %19 = getelementptr inbounds nuw i8, ptr %18, i64 24
  %20 = load ptr, ptr %19, align 8, !tbaa !41
  %21 = getelementptr inbounds nuw i8, ptr %20, i64 64
  %22 = load ptr, ptr %21, align 8, !tbaa !42
  tail call void @PyErr_SetString(ptr noundef %22, ptr noundef nonnull @.str.11) #5
  br label %blob_exit_impl.exit

check_blob.exit.i:                                ; preds = %13
  store ptr null, ptr %14, align 8, !tbaa !22
  %23 = tail call ptr @PyEval_SaveThread() #5
  %24 = tail call i32 @sqlite3_blob_close(ptr noundef nonnull %15) #5
  tail call void @PyEval_RestoreThread(ptr noundef %23) #5
  br label %blob_exit_impl.exit

blob_exit_impl.exit:                              ; preds = %check_blob.exit.i, %17, %10, %6, %4
  %.0 = phi ptr [ null, %4 ], [ @_Py_FalseStruct, %check_blob.exit.i ], [ null, %17 ], [ null, %10 ], [ null, %6 ]
  ret ptr %.0
}